target datalayout = "e-m:e-p270:32:32-p271:32:32-p272:64:64-i64:64-i128:128-f80:128-n8:16:32:64-S128"
target triple = "x86_64-pc-linux-gnu"

%"class.std::filesystem::__cxx11::path" = type { %"class.std::__cxx11::basic_string", %"struct.std::filesystem::__cxx11::path::_List" }
%"class.std::__cxx11::basic_string" = type { %"struct.std::__cxx11::basic_string<char>::_Alloc_hider", i64, %union.anon.3 }
%"struct.std::__cxx11::basic_string<char>::_Alloc_hider" = type { ptr }
%union.anon.3 = type { i64, [8 x i8] }
%"struct.std::filesystem::__cxx11::path::_List" = type { %"class.std::unique_ptr" }
%"class.std::unique_ptr" = type { %"struct.std::__uniq_ptr_data" }
%"struct.std::__uniq_ptr_data" = type { %"class.std::__uniq_ptr_impl" }
%"class.std::__uniq_ptr_impl" = type { %"class.std::tuple" }
%"class.std::tuple" = type { %"struct.std::_Tuple_impl" }
%"struct.std::_Tuple_impl" = type { %"struct.std::_Head_base.5" }
%"struct.std::_Head_base.5" = type { ptr }
%struct.gmx_enxnm_t = type { ptr, ptr }

@.str.38 = private unnamed_addr constant [123 x i8] c"generated/home/dtcxzyw/WorkSpace/Projects/compilers/llvm-opt-benchmark/bench/gromacs/gromacs/src/gromacs/tools/eneconv.cpp\00", align 1
@stderr = external global ptr, align 8
@.str.59 = private unnamed_addr constant [2 x i8] c"\0A\00", align 1
@.str.79 = private unnamed_addr constant [17 x i8] c"GMX_ENER_VERBOSE\00", align 1
@.str.80 = private unnamed_addr constant [60 x i8] c"Select the terms you want to scale from the following list\0A\00", align 1
@.str.81 = private unnamed_addr constant [27 x i8] c"End your selection with 0\0A\00", align 1
@.str.82 = private unnamed_addr constant [10 x i8] c" %3d=%14s\00", align 1
@.str.83 = private unnamed_addr constant [3 x i8] c"bE\00", align 1
@.str.84 = private unnamed_addr constant [3 x i8] c"%d\00", align 1
@.str.85 = private unnamed_addr constant [24 x i8] c"Cannot read energy term\00", align 1
@.str.86 = private unnamed_addr constant [4 x i8] c"set\00", align 1

; Function Attrs: inlinehint mustprogress uwtable
define internal void @_ZL14gmx_sfree_implIbEvPKcS1_iPT_(ptr noundef %0, ptr noundef %1, i32 noundef %2, ptr noundef %3) #8 {
  %5 = alloca ptr, align 8
  %6 = alloca ptr, align 8
  %7 = alloca i32, align 4
  %8 = alloca ptr, align 8
  store ptr %0, ptr %5, align 8, !tbaa !56
  store ptr %1, ptr %6, align 8, !tbaa !56
  store i32 %2, ptr %7, align 4, !tbaa !4
  store ptr %3, ptr %8, align 8, !tbaa !120
  %9 = load ptr, ptr %5, align 8, !tbaa !56
  %10 = load ptr, ptr %6, align 8, !tbaa !56
  %11 = load i32, ptr %7, align 4, !tbaa !4
  %12 = load ptr, ptr %8, align 8, !tbaa !120
  call void @_Z9save_freePKcS0_iPv(ptr noundef %9, ptr noundef %10, i32 noundef %11, ptr noundef %12)
  ret void
}

; Function Attrs: inlinehint mustprogress uwtable
define internal void @_ZL13gmx_snew_implIiEvPKcS1_iRPT_m(ptr noundef %0, ptr noundef %1, i32 noundef %2, ptr noundef nonnull align 8 dereferenceable(8) %3, i64 noundef %4) #8 {
  %6 = alloca ptr, align 8
  %7 = alloca ptr, align 8
  %8 = alloca i32, align 4
  %9 = alloca ptr, align 8
  %10 = alloca i64, align 8
  store ptr %0, ptr %6, align 8, !tbaa !56
  store ptr %1, ptr %7, align 8, !tbaa !56
  store i32 %2, ptr %8, align 4, !tbaa !4
  store ptr %3, ptr %9, align 8, !tbaa !102
  store i64 %4, ptr %10, align 8, !tbaa !15
  %11 = load ptr, ptr %6, align 8, !tbaa !56
  %12 = load ptr, ptr %7, align 8, !tbaa !56
  %13 = load i32, ptr %8, align 4, !tbaa !4
  %14 = load i64, ptr %10, align 8, !tbaa !15
  %15 = call noundef ptr @_Z11save_callocPKcS0_imm(ptr noundef %11, ptr noundef %12, i32 noundef %13, i64 noundef %14, i64 noundef 4)
  %16 = load ptr, ptr %9, align 8, !tbaa !102
  store ptr %15, ptr %16, align 8, !tbaa !17
  ret void
}

; Function Attrs: inlinehint mustprogress uwtable
define internal void @_ZL13gmx_snew_implIbEvPKcS1_iRPT_m(ptr noundef %0, ptr noundef %1, i32 noundef %2, ptr noundef nonnull align 8 dereferenceable(8) %3, i64 noundef %4) #8 {
  %6 = alloca ptr, align 8
  %7 = alloca ptr, align 8
  %8 = alloca i32, align 4
  %9 = alloca ptr, align 8
  %10 = alloca i64, align 8
  store ptr %0, ptr %6, align 8, !tbaa !56
  store ptr %1, ptr %7, align 8, !tbaa !56
  store i32 %2, ptr %8, align 4, !tbaa !4
  store ptr %3, ptr %9, align 8, !tbaa !211
  store i64 %4, ptr %10, align 8, !tbaa !15
  %11 = load ptr, ptr %6, align 8, !tbaa !56
  %12 = load ptr, ptr %7, align 8, !tbaa !56
  %13 = load i32, ptr %8, align 4, !tbaa !4
  %14 = load i64, ptr %10, align 8, !tbaa !15
  %15 = call noundef ptr @_Z11save_callocPKcS0_imm(ptr noundef %11, ptr noundef %12, i32 noundef %13, i64 noundef %14, i64 noundef 1)
  %16 = load ptr, ptr %9, align 8, !tbaa !211
  store ptr %15, ptr %16, align 8, !tbaa !120
  ret void
}

; Function Attrs: mustprogress uwtable
define internal noundef ptr @_ZL9select_itiP11gmx_enxnm_tPi(i32 noundef %0, ptr noundef %1, ptr noundef %2) #0 personality ptr @__gxx_personality_v0 {
  %4 = alloca i32, align 4
  %5 = alloca ptr, align 8
  %6 = alloca ptr, align 8
  %7 = alloca ptr, align 8
  %8 = alloca i32, align 4
  %9 = alloca i32, align 4
  %10 = alloca i32, align 4
  %11 = alloca i32, align 4
  %12 = alloca ptr, align 8
  %13 = alloca i8, align 1
  %14 = alloca %"class.std::filesystem::__cxx11::path", align 8
  %15 = alloca ptr, align 8
  %16 = alloca i32, align 4
  store i32 %0, ptr %4, align 4, !tbaa !4
  store ptr %1, ptr %5, align 8, !tbaa !14
  store ptr %2, ptr %6, align 8, !tbaa !17
  call void @llvm.lifetime.start.p0(i64 8, ptr %7) #17
  call void @llvm.lifetime.start.p0(i64 4, ptr %8) #17
  call void @llvm.lifetime.start.p0(i64 4, ptr %9) #17
  call void @llvm.lifetime.start.p0(i64 4, ptr %10) #17
  call void @llvm.lifetime.start.p0(i64 4, ptr %11) #17
  call void @llvm.lifetime.start.p0(i64 8, ptr %12) #17
  call void @llvm.lifetime.start.p0(i64 1, ptr %13) #17
  store i8 1, ptr %13, align 1, !tbaa !19
  %17 = call ptr @getenv(ptr noundef @.str.79) #17
  %18 = icmp ne ptr %17, null
  br i1 %18, label %19, label %20

19:                                               ; preds = %3
  store i8 0, ptr %13, align 1, !tbaa !19
  br label %20

20:                                               ; preds = %19, %3
  %21 = load ptr, ptr @stderr, align 8, !tbaa !40
  %22 = call i32 (ptr, ptr, ...) @fprintf(ptr noundef %21, ptr noundef @.str.80) #17
  %23 = load ptr, ptr @stderr, align 8, !tbaa !40
  %24 = call i32 (ptr, ptr, ...) @fprintf(ptr noundef %23, ptr noundef @.str.81) #17
  %25 = load i8, ptr %13, align 1, !tbaa !19, !range !46, !noundef !47
  %26 = trunc i8 %25 to i1
  br i1 %26, label %27, label %62

27:                                               ; preds = %20
  store i32 0, ptr %9, align 4, !tbaa !4
  br label %28

28:                                               ; preds = %58, %27
  %29 = load i32, ptr %9, align 4, !tbaa !4
  %30 = load i32, ptr %4, align 4, !tbaa !4
  %31 = icmp slt i32 %29, %30
  br i1 %31, label %32, label %61

32:                                               ; preds = %28
  store i32 0, ptr %10, align 4, !tbaa !4
  br label %33

33:                                               ; preds = %53, %32
  %34 = load i32, ptr %10, align 4, !tbaa !4
  %35 = icmp slt i32 %34, 4
  br i1 %35, label %36, label %40

36:                                               ; preds = %33
  %37 = load i32, ptr %9, align 4, !tbaa !4
  %38 = load i32, ptr %4, align 4, !tbaa !4
  %39 = icmp slt i32 %37, %38
  br label %40

40:                                               ; preds = %36, %33
  %41 = phi i1 [ false, %33 ], [ %39, %36 ]
  br i1 %41, label %42, label %58

42:                                               ; preds = %40
  %43 = load ptr, ptr @stderr, align 8, !tbaa !40
  %44 = load i32, ptr %9, align 4, !tbaa !4
  %45 = add nsw i32 %44, 1
  %46 = load ptr, ptr %5, align 8, !tbaa !14
  %47 = load i32, ptr %9, align 4, !tbaa !4
  %48 = sext i32 %47 to i64
  %49 = getelementptr inbounds %struct.gmx_enxnm_t, ptr %46, i64 %48
  %50 = getelementptr inbounds nuw %struct.gmx_enxnm_t, ptr %49, i32 0, i32 0
  %51 = load ptr, ptr %50, align 8, !tbaa !116
  %52 = call i32 (ptr, ptr, ...) @fprintf(ptr noundef %43, ptr noundef @.str.82, i32 noundef %45, ptr noundef %51) #17
  br label %53

53:                                               ; preds = %42
  %54 = load i32, ptr %10, align 4, !tbaa !4
  %55 = add nsw i32 %54, 1
  store i32 %55, ptr %10, align 4, !tbaa !4
  %56 = load i32, ptr %9, align 4, !tbaa !4
  %57 = add nsw i32 %56, 1
  store i32 %57, ptr %9, align 4, !tbaa !4
  br label %33, !llvm.loop !118

58:                                               ; preds = %40
  %59 = load ptr, ptr @stderr, align 8, !tbaa !40
  %60 = call i32 (ptr, ptr, ...) @fprintf(ptr noundef %59, ptr noundef @.str.59) #17
  br label %28, !llvm.loop !119

61:                                               ; preds = %28
  br label %62

62:                                               ; preds = %61, %20
  %63 = load i32, ptr %4, align 4, !tbaa !4
  %64 = sext i32 %63 to i64
  call void @_ZL13gmx_snew_implIbEvPKcS1_iRPT_m(ptr noundef @.str.83, ptr noundef @.str.38, i32 noundef 105, ptr noundef nonnull align 8 dereferenceable(8) %7, i64 noundef %64)
  br label %65

65:                                               ; preds = %88, %62
  %66 = call i32 (ptr, ...) @__isoc99_scanf(ptr noundef @.str.84, ptr noundef %8)
  %67 = icmp ne i32 1, %66
  br i1 %67, label %68, label %74

68:                                               ; preds = %65
  call void @llvm.lifetime.start.p0(i64 40, ptr %14) #17
  call void @_ZNSt10filesystem7__cxx114pathC2IA123_cS1_EERKT_NS1_6formatE(ptr noundef nonnull align 8 dereferenceable(40) %14, ptr noundef nonnull align 1 dereferenceable(123) @.str.38, i8 noundef zeroext 2)
  invoke void (i32, ptr, i32, ptr, ...) @_Z9gmx_fataliRKNSt10filesystem7__cxx114pathEiPKcz(i32 noundef 0, ptr noundef nonnull align 8 dereferenceable(40) %14, i32 noundef 110, ptr noundef @.str.85) #18
          to label %69 unwind label %70

69:                                               ; preds = %68
  unreachable

70:                                               ; preds = %68
  %71 = landingpad { ptr, i32 }
          cleanup
  %72 = extractvalue { ptr, i32 } %71, 0
  store ptr %72, ptr %15, align 8
  %73 = extractvalue { ptr, i32 } %71, 1
  store i32 %73, ptr %16, align 4
  call void @_ZNSt10filesystem7__cxx114pathD2Ev(ptr noundef nonnull align 8 dereferenceable(40) %14) #17
  call void @llvm.lifetime.end.p0(i64 40, ptr %14) #17
  call void @llvm.lifetime.end.p0(i64 1, ptr %13) #17
  call void @llvm.lifetime.end.p0(i64 8, ptr %12) #17
  call void @llvm.lifetime.end.p0(i64 4, ptr %11) #17
  call void @llvm.lifetime.end.p0(i64 4, ptr %10) #17
  call void @llvm.lifetime.end.p0(i64 4, ptr %9) #17
  call void @llvm.lifetime.end.p0(i64 4, ptr %8) #17
  call void @llvm.lifetime.end.p0(i64 8, ptr %7) #17
  br label %121

74:                                               ; preds = %65
  %75 = load i32, ptr %8, align 4, !tbaa !4
  %76 = icmp sgt i32 %75, 0
  br i1 %76, label %77, label %87

77:                                               ; preds = %74
  %78 = load i32, ptr %8, align 4, !tbaa !4
  %79 = load i32, ptr %4, align 4, !tbaa !4
  %80 = icmp sle i32 %78, %79
  br i1 %80, label %81, label %87

81:                                               ; preds = %77
  %82 = load ptr, ptr %7, align 8, !tbaa !120
  %83 = load i32, ptr %8, align 4, !tbaa !4
  %84 = sub nsw i32 %83, 1
  %85 = sext i32 %84 to i64
  %86 = getelementptr inbounds i8, ptr %82, i64 %85
  store i8 1, ptr %86, align 1, !tbaa !19
  br label %87

87:                                               ; preds = %81, %77, %74
  br label %88

88:                                               ; preds = %87
  %89 = load i32, ptr %8, align 4, !tbaa !4
  %90 = icmp ne i32 %89, 0
  br i1 %90, label %65, label %91, !llvm.loop !122

91:                                               ; preds = %88
  %92 = load i32, ptr %4, align 4, !tbaa !4
  %93 = sext i32 %92 to i64
  call void @_ZL13gmx_snew_implIiEvPKcS1_iRPT_m(ptr noundef @.str.86, ptr noundef @.str.38, i32 noundef 118, ptr noundef nonnull align 8 dereferenceable(8) %12, i64 noundef %93)
  %94 = load ptr, ptr %6, align 8, !tbaa !17
  store i32 0, ptr %94, align 4, !tbaa !4
  store i32 0, ptr %11, align 4, !tbaa !4
  br label %95

95:                                               ; preds = %115, %91
  %96 = load i32, ptr %11, align 4, !tbaa !4
  %97 = load i32, ptr %4, align 4, !tbaa !4
  %98 = icmp slt i32 %96, %97
  br i1 %98, label %99, label %118

99:                                               ; preds = %95
  %100 = load ptr, ptr %7, align 8, !tbaa !120
  %101 = load i32, ptr %11, align 4, !tbaa !4
  %102 = sext i32 %101 to i64
  %103 = getelementptr inbounds i8, ptr %100, i64 %102
  %104 = load i8, ptr %103, align 1, !tbaa !19, !range !46, !noundef !47
  %105 = trunc i8 %104 to i1
  br i1 %105, label %106, label %114

106:                                              ; preds = %99
  %107 = load i32, ptr %11, align 4, !tbaa !4
  %108 = load ptr, ptr %12, align 8, !tbaa !17
  %109 = load ptr, ptr %6, align 8, !tbaa !17
  %110 = load i32, ptr %109, align 4, !tbaa !4
  %111 = add nsw i32 %110, 1
  store i32 %111, ptr %109, align 4, !tbaa !4
  %112 = sext i32 %110 to i64
  %113 = getelementptr inbounds i32, ptr %108, i64 %112
  store i32 %107, ptr %113, align 4, !tbaa !4
  br label %114

114:                                              ; preds = %106, %99
  br label %115

115:                                              ; preds = %114
  %116 = load i32, ptr %11, align 4, !tbaa !4
  %117 = add nsw i32 %116, 1
  store i32 %117, ptr %11, align 4, !tbaa !4
  br label %95, !llvm.loop !123

118:                                              ; preds = %95
  %119 = load ptr, ptr %7, align 8, !tbaa !120
  call void @_ZL14gmx_sfree_implIbEvPKcS1_iPT_(ptr noundef @.str.83, ptr noundef @.str.38, i32 noundef 127, ptr noundef %119)
  %120 = load ptr, ptr %12, align 8, !tbaa !17
  call void @llvm.lifetime.end.p0(i64 1, ptr %13) #17
  call void @llvm.lifetime.end.p0(i64 8, ptr %12) #17
  call void @llvm.lifetime.end.p0(i64 4, ptr %11) #17
  call void @llvm.lifetime.end.p0(i64 4, ptr %10) #17
  call void @llvm.lifetime.end.p0(i64 4, ptr %9) #17
  call void @llvm.lifetime.end.p0(i64 4, ptr %8) #17
  call void @llvm.lifetime.end.p0(i64 8, ptr %7) #17
  ret ptr %120

121:                                              ; preds = %70
  %122 = load ptr, ptr %15, align 8
  %123 = load i32, ptr %16, align 4
  %124 = insertvalue { ptr, i32 } poison, ptr %122, 0
  %125 = insertvalue { ptr, i32 } %124, i32 %123, 1
  resume { ptr, i32 } %125
}